; ModuleID = '8/309.c'
source_filename = "8/309.c"
target datalayout = "e-m:e-p270:32:32-p271:32:32-p272:64:64-i64:64-f80:128-n8:16:32:64-S128"
target triple = "x86_64-pc-linux-gnu"

@.str = private unnamed_addr constant [6 x i8] c"%d %d\00", align 1
@.str.1 = private unnamed_addr constant [3 x i8] c"%d\00", align 1
@.str.2 = private unnamed_addr constant [4 x i8] c" %d\00", align 1

; Function Attrs: noinline nounwind uwtable
define dso_local i32 @main() #0 {
  %1 = alloca i32, align 4
  %2 = alloca i32, align 4
  %3 = alloca i32, align 4
  %4 = alloca [100 x i32], align 16
  %5 = alloca [100 x i32], align 16
  %6 = alloca i32, align 4
  %7 = alloca i32, align 4
  %8 = alloca i32, align 4
  store i32 0, i32* %1, align 4
  %9 = call i32 (i8*, ...) @__isoc99_scanf(i8* getelementptr inbounds ([6 x i8], [6 x i8]* @.str, i64 0, i64 0), i32* %2, i32* %3)
  store i32 0, i32* %6, align 4
  br label %10

10:                                               ; preds = %17, %0
  %11 = load i32, i32* %6, align 4
  %12 = sext i32 %11 to i64
  %13 = getelementptr inbounds [100 x i32], [100 x i32]* %4, i64 0, i64 %12
  %14 = call i32 (i8*, ...) @__isoc99_scanf(i8* getelementptr inbounds ([3 x i8], [3 x i8]* @.str.1, i64 0, i64 0), i32* %13)
  %15 = load i32, i32* %6, align 4
  %16 = add nsw i32 %15, 1
  store i32 %16, i32* %6, align 4
  br label %17

17:                                               ; preds = %10
  %18 = load i32, i32* %6, align 4
  %19 = load i32, i32* %2, align 4
  %20 = icmp slt i32 %18, %19
  br i1 %20, label %10, label %21

21:                                               ; preds = %17
  store i32 0, i32* %6, align 4
  br label %22

22:                                               ; preds = %29, %21
  %23 = load i32, i32* %6, align 4
  %24 = sext i32 %23 to i64
  %25 = getelementptr inbounds [100 x i32], [100 x i32]* %5, i64 0, i64 %24
  %26 = call i32 (i8*, ...) @__isoc99_scanf(i8* getelementptr inbounds ([3 x i8], [3 x i8]* @.str.1, i64 0, i64 0), i32* %25)
  %27 = load i32, i32* %6, align 4
  %28 = add nsw i32 %27, 1
  store i32 %28, i32* %6, align 4
  br label %29

29:                                               ; preds = %22
  %30 = load i32, i32* %6, align 4
  %31 = load i32, i32* %3, align 4
  %32 = icmp slt i32 %30, %31
  br i1 %32, label %22, label %33

33:                                               ; preds = %29
  store i32 0, i32* %7, align 4
  br label %34

34:                                               ; preds = %77, %33
  store i32 0, i32* %6, align 4
  br label %35

35:                                               ; preds = %71, %34
  %36 = load i32, i32* %6, align 4
  %37 = load i32, i32* %2, align 4
  %38 = sub nsw i32 %37, 1
  %39 = load i32, i32* %7, align 4
  %40 = sub nsw i32 %38, %39
  %41 = icmp slt i32 %36, %40
  br i1 %41, label %42, label %74

42:                                               ; preds = %35
  %43 = load i32, i32* %6, align 4
  %44 = sext i32 %43 to i64
  %45 = getelementptr inbounds [100 x i32], [100 x i32]* %4, i64 0, i64 %44
  %46 = load i32, i32* %45, align 4
  %47 = load i32, i32* %6, align 4
  %48 = add nsw i32 %47, 1
  %49 = sext i32 %48 to i64
  %50 = getelementptr inbounds [100 x i32], [100 x i32]* %4, i64 0, i64 %49
  %51 = load i32, i32* %50, align 4
  %52 = icmp sgt i32 %46, %51
  br i1 %52, label %53, label %71

53:                                               ; preds = %42
  %54 = load i32, i32* %6, align 4
  %55 = sext i32 %54 to i64
  %56 = getelementptr inbounds [100 x i32], [100 x i32]* %4, i64 0, i64 %55
  %57 = load i32, i32* %56, align 4
  store i32 %57, i32* %8, align 4
  %58 = load i32, i32* %6, align 4
  %59 = add nsw i32 %58, 1
  %60 = sext i32 %59 to i64
  %61 = getelementptr inbounds [100 x i32], [100 x i32]* %4, i64 0, i64 %60
  %62 = load i32, i32* %61, align 4
  %63 = load i32, i32* %6, align 4
  %64 = sext i32 %63 to i64
  %65 = getelementptr inbounds [100 x i32], [100 x i32]* %4, i64 0, i64 %64
  store i32 %62, i32* %65, align 4
  %66 = load i32, i32* %8, align 4
  %67 = load i32, i32* %6, align 4
  %68 = add nsw i32 %67, 1
  %69 = sext i32 %68 to i64
  %70 = getelementptr inbounds [100 x i32], [100 x i32]* %4, i64 0, i64 %69
  store i32 %66, i32* %70, align 4
  br label %71

71:                                               ; preds = %53, %42
  %72 = load i32, i32* %6, align 4
  %73 = add nsw i32 %72, 1
  store i32 %73, i32* %6, align 4
  br label %35

74:                                               ; preds = %35
  %75 = load i32, i32* %7, align 4
  %76 = add nsw i32 %75, 1
  store i32 %76, i32* %7, align 4
  br label %77

77:                                               ; preds = %74
  %78 = load i32, i32* %7, align 4
  %79 = load i32, i32* %2, align 4
  %80 = sub nsw i32 %79, 1
  %81 = icmp slt i32 %78, %80
  br i1 %81, label %34, label %82

82:                                               ; preds = %77
  store i32 0, i32* %7, align 4
  br label %83

83:                                               ; preds = %126, %82
  store i32 0, i32* %6, align 4
  br label %84

84:                                               ; preds = %120, %83
  %85 = load i32, i32* %6, align 4
  %86 = load i32, i32* %3, align 4
  %87 = sub nsw i32 %86, 1
  %88 = load i32, i32* %7, align 4
  %89 = sub nsw i32 %87, %88
  %90 = icmp slt i32 %85, %89
  br i1 %90, label %91, label %123

91:                                               ; preds = %84
  %92 = load i32, i32* %6, align 4
  %93 = sext i32 %92 to i64
  %94 = getelementptr inbounds [100 x i32], [100 x i32]* %5, i64 0, i64 %93
  %95 = load i32, i32* %94, align 4
  %96 = load i32, i32* %6, align 4
  %97 = add nsw i32 %96, 1
  %98 = sext i32 %97 to i64
  %99 = getelementptr inbounds [100 x i32], [100 x i32]* %5, i64 0, i64 %98
  %100 = load i32, i32* %99, align 4
  %101 = icmp sgt i32 %95, %100
  br i1 %101, label %102, label %120

102:                                              ; preds = %91
  %103 = load i32, i32* %6, align 4
  %104 = sext i32 %103 to i64
  %105 = getelementptr inbounds [100 x i32], [100 x i32]* %5, i64 0, i64 %104
  %106 = load i32, i32* %105, align 4
  store i32 %106, i32* %8, align 4
  %107 = load i32, i32* %6, align 4
  %108 = add nsw i32 %107, 1
  %109 = sext i32 %108 to i64
  %110 = getelementptr inbounds [100 x i32], [100 x i32]* %5, i64 0, i64 %109
  %111 = load i32, i32* %110, align 4
  %112 = load i32, i32* %6, align 4
  %113 = sext i32 %112 to i64
  %114 = getelementptr inbounds [100 x i32], [100 x i32]* %5, i64 0, i64 %113
  store i32 %111, i32* %114, align 4
  %115 = load i32, i32* %8, align 4
  %116 = load i32, i32* %6, align 4
  %117 = add nsw i32 %116, 1
  %118 = sext i32 %117 to i64
  %119 = getelementptr inbounds [100 x i32], [100 x i32]* %5, i64 0, i64 %118
  store i32 %115, i32* %119, align 4
  br label %120

120:                                              ; preds = %102, %91
  %121 = load i32, i32* %6, align 4
  %122 = add nsw i32 %121, 1
  store i32 %122, i32* %6, align 4
  br label %84

123:                                              ; preds = %84
  %124 = load i32, i32* %7, align 4
  %125 = add nsw i32 %124, 1
  store i32 %125, i32* %7, align 4
  br label %126

126:                                              ; preds = %123
  %127 = load i32, i32* %7, align 4
  %128 = load i32, i32* %3, align 4
  %129 = sub nsw i32 %128, 1
  %130 = icmp slt i32 %127, %129
  br i1 %130, label %83, label %131

131:                                              ; preds = %126
  %132 = getelementptr inbounds [100 x i32], [100 x i32]* %4, i64 0, i64 0
  %133 = load i32, i32* %132, align 16
  %134 = call i32 (i8*, ...) @printf(i8* getelementptr inbounds ([3 x i8], [3 x i8]* @.str.1, i64 0, i64 0), i32 %133)
  store i32 1, i32* %6, align 4
  br label %135

135:                                              ; preds = %143, %131
  %136 = load i32, i32* %6, align 4
  %137 = sext i32 %136 to i64
  %138 = getelementptr inbounds [100 x i32], [100 x i32]* %4, i64 0, i64 %137
  %139 = load i32, i32* %138, align 4
  %140 = call i32 (i8*, ...) @printf(i8* getelementptr inbounds ([4 x i8], [4 x i8]* @.str.2, i64 0, i64 0), i32 %139)
  %141 = load i32, i32* %6, align 4
  %142 = add nsw i32 %141, 1
  store i32 %142, i32* %6, align 4
  br label %143

143:                                              ; preds = %135
  %144 = load i32, i32* %6, align 4
  %145 = load i32, i32* %2, align 4
  %146 = icmp slt i32 %144, %145
  br i1 %146, label %135, label %147

147:                                              ; preds = %143
  store i32 0, i32* %6, align 4
  br label %148

148:                                              ; preds = %156, %147
  %149 = load i32, i32* %6, align 4
  %150 = sext i32 %149 to i64
  %151 = getelementptr inbounds [100 x i32], [100 x i32]* %5, i64 0, i64 %150
  %152 = load i32, i32* %151, align 4
  %153 = call i32 (i8*, ...) @printf(i8* getelementptr inbounds ([4 x i8], [4 x i8]* @.str.2, i64 0, i64 0), i32 %152)
  %154 = load i32, i32* %6, align 4
  %155 = add nsw i32 %154, 1
  store i32 %155, i32* %6, align 4
  br label %156

156:                                              ; preds = %148
  %157 = load i32, i32* %6, align 4
  %158 = load i32, i32* %3, align 4
  %159 = icmp slt i32 %157, %158
  br i1 %159, label %148, label %160

160:                                              ; preds = %156
  ret i32 0
}

declare dso_local i32 @__isoc99_scanf(i8*, ...) #1

declare dso_local i32 @printf(i8*, ...) #1


!llvm.module.flags = !{!0}
!llvm.ident = !{!1}

!0 = !{i32 1, !"wchar_size", i32 4}
!1 = !{!"clang version 10.0.0-4ubuntu1 "}
